; Function Attrs: mustprogress uwtable
define i32 @ubidi_countRuns_77(ptr noundef %0, ptr noundef %1) local_unnamed_addr #0 {
  %3 = icmp eq ptr %1, null
  br i1 %3, label %23, label %4

4:                                                ; preds = %2
  %5 = load i32, ptr %1, align 4, !tbaa !3
  %6 = icmp slt i32 %5, 1
  br i1 %6, label %7, label %23

7:                                                ; preds = %4
  %.not16 = icmp eq ptr %0, null
  br i1 %.not16, label %15, label %8

8:                                                ; preds = %7
  %9 = load ptr, ptr %0, align 8, !tbaa !7
  %10 = icmp eq ptr %9, %0
  br i1 %10, label %16, label %11

11:                                               ; preds = %8
  %.not17 = icmp eq ptr %9, null
  br i1 %.not17, label %15, label %12

12:                                               ; preds = %11
  %13 = load ptr, ptr %9, align 8, !tbaa !7
  %14 = icmp eq ptr %13, %9
  br i1 %14, label %16, label %15

15:                                               ; preds = %12, %11, %7
  store i32 27, ptr %1, align 4, !tbaa !3
  br label %23

16:                                               ; preds = %8, %12
  %17 = tail call signext i8 @ubidi_getRuns_77(ptr noundef nonnull %0, ptr nonnull poison)
  %18 = load i32, ptr %1, align 4, !tbaa !3
  %19 = icmp slt i32 %18, 1
  br i1 %19, label %20, label %23

20:                                               ; preds = %16
  %21 = getelementptr inbounds nuw i8, ptr %0, i64 296
  %22 = load i32, ptr %21, align 8, !tbaa !44
  br label %23

23:                                               ; preds = %16, %2, %4, %20, %15
  %.0 = phi i32 [ %22, %20 ], [ -1, %15 ], [ -1, %4 ], [ -1, %2 ], [ -1, %16 ]
  ret i32 %.0
}